(lp0
(lp1
cnumpy.core.multiarray
scalar
p2
(cnumpy
dtype
p3
(S'f4'
p4
I0
I1
tp5
Rp6
(I3
S'<'
p7
NNNI-1
I-1
I0
tp8
bS'\xff\xccM?'
p9
tp10
Rp11
ag2
(g6
S"rJ'?"
p12
tp13
Rp14
ag2
(g6
S'\xeb\x00D?'
p15
tp16
Rp17
ag2
(g6
S'\xe00[?'
p18
tp19
Rp20
ag2
(g6
S')\xc0\xd8>'
p21
tp22
Rp23
ag2
(g6
S'l=W?'
p24
tp25
Rp26
ag2
(g6
S'\xd9z}?'
p27
tp28
Rp29
ag2
(g6
S'\xc7{\x1e?'
p30
tp31
Rp32
ag2
(g6
S'\xcf\xa6r?'
p33
tp34
Rp35
ag2
(g6
S'r\x17(?'
p36
tp37
Rp38
ag2
(g6
S'\xa9\x89\xe4>'
p39
tp40
Rp41
ag2
(g6
S'Q\x05\xeb>'
p42
tp43
Rp44
ag2
(g6
S'\xda\x1cV?'
p45
tp46
Rp47
ag2
(g6
S'\xcc\xeeB?'
p48
tp49
Rp50
ag2
(g6
S'\xedM<?'
p51
tp52
Rp53
ag2
(g6
S'\xe1Bh?'
p54
tp55
Rp56
ag2
(g6
S'\xbc\xa8\xff>'
p57
tp58
Rp59
ag2
(g6
S',\xbdI?'
p60
tp61
Rp62
ag2
(g6
S'\x97\xf61?'
p63
tp64
Rp65
ag2
(g6
S'\xab\x1e\x1d?'
p66
tp67
Rp68
ag2
(g6
S'-\xadg?'
p69
tp70
Rp71
ag2
(g6
S'\xe3p\x0b?'
p72
tp73
Rp74
ag2
(g6
S'\xb5vg?'
p75
tp76
Rp77
ag2
(g6
S'\xd9\x90:?'
p78
tp79
Rp80
ag2
(g6
S'\xdd\xdf\x1c?'
p81
tp82
Rp83
ag2
(g6
S'6\xfbG?'
p84
tp85
Rp86
ag2
(g6
S'\x05N\x14?'
p87
tp88
Rp89
ag2
(g6
S'&e\xf6>'
p90
tp91
Rp92
ag2
(g6
S'\x9a;V?'
p93
tp94
Rp95
ag2
(g6
S'aA\x1a?'
p96
tp97
Rp98
ag2
(g6
S'P\x8e/?'
p99
tp100
Rp101
ag2
(g6
S'\xae\xa1\xe1>'
p102
tp103
Rp104
ag2
(g6
S'\x03\xca%?'
p105
tp106
Rp107
ag2
(g6
S'\x14\xe1\xfc>'
p108
tp109
Rp110
ag2
(g6
S'\x9a5\x7f?'
p111
tp112
Rp113
ag2
(g6
S'\x13\xcd`?'
p114
tp115
Rp116
ag2
(g6
S'+@w?'
p117
tp118
Rp119
ag2
(g6
S'\xf9\x1bL?'
p120
tp121
Rp122
ag2
(g6
S'\xcb\xbf>?'
p123
tp124
Rp125
ag2
(g6
S'\xa21M?'
p126
tp127
Rp128
ag2
(g6
S'\x0c\x02c?'
p129
tp130
Rp131
ag2
(g6
S'\xc5Bj?'
p132
tp133
Rp134
ag2
(g6
S'B\xca8?'
p135
tp136
Rp137
ag2
(g6
S'\x07\xc5"?'
p138
tp139
Rp140
ag2
(g6
S'\x02\xd6`?'
p141
tp142
Rp143
ag2
(g6
S'\x7f\x8f=?'
p144
tp145
Rp146
ag2
(g6
S'\xb5\t\x1a?'
p147
tp148
Rp149
ag2
(g6
S'5\x88X?'
p150
tp151
Rp152
ag2
(g6
S'|*9?'
p153
tp154
Rp155
ag2
(g6
S'(t4?'
p156
tp157
Rp158
ag2
(g6
S'C$H?'
p159
tp160
Rp161
aa(lp162
g2
(g6
S'\x00\xccH>'
p163
tp164
Rp165
ag2
(g6
S'\x1dk\xb1>'
p166
tp167
Rp168
ag2
(g6
S'U\xfco>'
p169
tp170
Rp171
ag2
(g6
S'\x80<\x13>'
p172
tp173
Rp174
ag2
(g6
S'\xeb\x9f\x13?'
p175
tp176
Rp177
ag2
(g6
S'R\n#>'
p178
tp179
Rp180
ag2
(g6
S'\xd6I!<'
p181
tp182
Rp183
ag2
(g6
S'q\x08\xc3>'
p184
tp185
Rp186
ag2
(g6
S'\xfb\x92U='
p187
tp188
Rp189
ag2
(g6
S'\x1b\xd1\xaf>'
p190
tp191
Rp192
ag2
(g6
S'+\xbb\r?'
p193
tp194
Rp195
ag2
(g6
S'X}\n?'
p196
tp197
Rp198
ag2
(g6
S"\x9b\x8c'>"
p199
tp200
Rp201
ag2
(g6
S'\xd0Dt>'
p202
tp203
Rp204
ag2
(g6
S"'d\x87>"
p205
tp206
Rp207
ag2
(g6
S'\xf3\xe8\xbd='
p208
tp209
Rp210
ag2
(g6
S'\xa2+\x00?'
p211
tp212
Rp213
ag2
(g6
S'S\x0bY>'
p214
tp215
Rp216
ag2
(g6
S'\xd3\x12\x9c>'
p217
tp218
Rp219
ag2
(g6
S'\xaa\xc2\xc5>'
p220
tp221
Rp222
ag2
(g6
S'\x99\x96\xc2='
p223
tp224
Rp225
ag2
(g6
S'9\x1e\xe9>'
p226
tp227
Rp228
ag2
(g6
S'XJ\xc4='
p229
tp230
Rp231
ag2
(g6
S'N\xde\x8a>'
p232
tp233
Rp234
ag2
(g6
S'E@\xc6>'
p235
tp236
Rp237
ag2
(g6
S'*\x13`>'
p238
tp239
Rp240
ag2
(g6
S'\xf7c\xd7>'
p241
tp242
Rp243
ag2
(g6
S'm\xcd\x04?'
p244
tp245
Rp246
ag2
(g6
S"\x99\x11'>"
p247
tp248
Rp249
ag2
(g6
S'>}\xcb>'
p250
tp251
Rp252
ag2
(g6
S'_\xe3\xa0>'
p253
tp254
Rp255
ag2
(g6
S'(/\x0f?'
p256
tp257
Rp258
ag2
(g6
S'\xf8k\xb4>'
p259
tp260
Rp261
ag2
(g6
S'u\x8f\x01?'
p262
tp263
Rp264
ag2
(g6
S'\xb3fJ;'
p265
tp266
Rp267
ag2
(g6
S'm\x97\xf9='
p268
tp269
Rp270
ag2
(g6
S'Z\xfd\x0b='
p271
tp272
Rp273
ag2
(g6
S'\x1c\x90O>'
p274
tp275
Rp276
ag2
(g6
S'i\x80\x82>'
p277
tp278
Rp279
ag2
(g6
S'x9K>'
p280
tp281
Rp282
ag2
(g6
S'\xa1\xef\xe7='
p283
tp284
Rp285
ag2
(g6
S'\xd6\xe9\xad='
p286
tp287
Rp288
ag2
(g6
S'{k\x8e>'
p289
tp290
Rp291
ag2
(g6
S'\xf2u\xba>'
p292
tp293
Rp294
ag2
(g6
S'\xedO\xf9='
p295
tp296
Rp297
ag2
(g6
S'\x02\xe1\x84>'
p298
tp299
Rp300
ag2
(g6
S'\x95\xec\xcb>'
p301
tp302
Rp303
ag2
(g6
S'.\xdf\x1d>'
p304
tp305
Rp306
ag2
(g6
S'\t\xab\x8d>'
p307
tp308
Rp309
ag2
(g6
S'\xb0\x17\x97>'
p310
tp311
Rp312
ag2
(g6
S'\xf5n_>'
p313
tp314
Rp315
aa.